; Function Attrs: nounwind uwtable
define noundef i32 @pmix_bfrops_base_unpack_device(ptr noundef %0, ptr noundef %1, ptr noundef %2, ptr noundef readonly captures(none) %3, i16 noundef zeroext %4) local_unnamed_addr #0 {
  %6 = alloca i32, align 4
  call void @llvm.lifetime.start.p0(i64 4, ptr nonnull %6) #10
  %7 = load i32, ptr getelementptr inbounds nuw (i8, ptr @pmix_bfrops_base_framework, i64 76), align 4, !tbaa !7
  %or.cond = icmp ult i32 %7, 64
  br i1 %or.cond, label %8, label %15

8:                                                ; preds = %5
  %9 = zext nneg i32 %7 to i64
  %10 = getelementptr inbounds nuw [0 x %struct.pmix_output_desc_t], ptr @pmix_output_info, i64 0, i64 %9, i32 2
  %11 = load i32, ptr %10, align 4, !tbaa !19
  %12 = icmp sgt i32 %11, 19
  br i1 %12, label %13, label %15

13:                                               ; preds = %8
  %14 = load i32, ptr %3, align 4, !tbaa !3
  tail call void (i32, ptr, ...) @pmix_output(i32 noundef %7, ptr noundef nonnull @.str.36, i32 noundef %14) #10
  br label %15

15:                                               ; preds = %13, %8, %5
  %16 = load i32, ptr %3, align 4, !tbaa !3
  %17 = icmp sgt i32 %16, 0
  br i1 %17, label %.lr.ph, label %.loopexit

.lr.ph:                                           ; preds = %15
  %18 = getelementptr inbounds nuw i8, ptr %0, i64 128
  %19 = getelementptr inbounds nuw i8, ptr %0, i64 152
  %wide.trip.count = zext nneg i32 %16 to i64
  br label %20

20:                                               ; preds = %.lr.ph, %53
  %indvars.iv = phi i64 [ 0, %.lr.ph ], [ %indvars.iv.next, %53 ]
  %21 = getelementptr inbounds nuw %struct.pmix_device, ptr %2, i64 %indvars.iv
  call void @PMIx_Device_construct(ptr noundef %21) #10
  store i32 1, ptr %6, align 4, !tbaa !3
  %22 = load i32, ptr %18, align 8, !tbaa !26
  %.not.i = icmp sgt i32 %22, 3
  br i1 %.not.i, label %pmix_pointer_array_get_item.exit, label %.loopexit.sink.split, !prof !29

pmix_pointer_array_get_item.exit:                 ; preds = %20
  %23 = load ptr, ptr %19, align 8, !tbaa !30
  %24 = getelementptr inbounds nuw i8, ptr %23, i64 24
  %25 = load ptr, ptr %24, align 8, !tbaa !31
  %26 = icmp eq ptr %25, null
  br i1 %26, label %.loopexit.sink.split, label %27

27:                                               ; preds = %pmix_pointer_array_get_item.exit
  %28 = getelementptr inbounds nuw i8, ptr %25, i64 144
  %29 = load ptr, ptr %28, align 8, !tbaa !32
  %30 = call i32 %29(ptr noundef nonnull %0, ptr noundef %1, ptr noundef %21, ptr noundef nonnull %6, i16 noundef zeroext 3) #10
  switch i32 %30, label %.loopexit.sink.split [
    i32 0, label %31
    i32 -2, label %.loopexit
  ]

31:                                               ; preds = %27
  store i32 1, ptr %6, align 4, !tbaa !3
  %32 = load i32, ptr %18, align 8, !tbaa !26
  %.not.i53 = icmp sgt i32 %32, 3
  br i1 %.not.i53, label %pmix_pointer_array_get_item.exit55, label %.loopexit.sink.split, !prof !29

pmix_pointer_array_get_item.exit55:               ; preds = %31
  %33 = load ptr, ptr %19, align 8, !tbaa !30
  %34 = getelementptr inbounds nuw i8, ptr %33, i64 24
  %35 = load ptr, ptr %34, align 8, !tbaa !31
  %36 = icmp eq ptr %35, null
  br i1 %36, label %.loopexit.sink.split, label %37

37:                                               ; preds = %pmix_pointer_array_get_item.exit55
  %38 = getelementptr inbounds nuw i8, ptr %35, i64 144
  %39 = load ptr, ptr %38, align 8, !tbaa !32
  %40 = getelementptr inbounds nuw i8, ptr %21, i64 8
  %41 = call i32 %39(ptr noundef nonnull %0, ptr noundef %1, ptr noundef nonnull %40, ptr noundef nonnull %6, i16 noundef zeroext 3) #10
  switch i32 %41, label %.loopexit.sink.split [
    i32 0, label %42
    i32 -2, label %.loopexit
  ]

42:                                               ; preds = %37
  store i32 1, ptr %6, align 4, !tbaa !3
  %43 = load i32, ptr %18, align 8, !tbaa !26
  %.not.i56 = icmp sgt i32 %43, 57
  br i1 %.not.i56, label %pmix_pointer_array_get_item.exit58, label %.loopexit.sink.split, !prof !29

pmix_pointer_array_get_item.exit58:               ; preds = %42
  %44 = load ptr, ptr %19, align 8, !tbaa !30
  %45 = getelementptr inbounds nuw i8, ptr %44, i64 456
  %46 = load ptr, ptr %45, align 8, !tbaa !31
  %47 = icmp eq ptr %46, null
  br i1 %47, label %.loopexit.sink.split, label %48

48:                                               ; preds = %pmix_pointer_array_get_item.exit58
  %49 = getelementptr inbounds nuw i8, ptr %46, i64 144
  %50 = load ptr, ptr %49, align 8, !tbaa !32
  %51 = getelementptr inbounds nuw i8, ptr %21, i64 16
  %52 = call i32 %50(ptr noundef nonnull %0, ptr noundef %1, ptr noundef nonnull %51, ptr noundef nonnull %6, i16 noundef zeroext 57) #10
  switch i32 %52, label %.loopexit.sink.split [
    i32 0, label %53
    i32 -2, label %.loopexit
  ]

53:                                               ; preds = %48
  %indvars.iv.next = add nuw nsw i64 %indvars.iv, 1
  %exitcond.not = icmp eq i64 %indvars.iv.next, %wide.trip.count
  br i1 %exitcond.not, label %.loopexit, label %20, !llvm.loop !137

.loopexit.sink.split:                             ; preds = %48, %pmix_pointer_array_get_item.exit58, %42, %37, %pmix_pointer_array_get_item.exit55, %31, %27, %pmix_pointer_array_get_item.exit, %20
  %.271.sink = phi i32 [ %30, %27 ], [ -16, %pmix_pointer_array_get_item.exit ], [ -16, %20 ], [ %41, %37 ], [ -16, %pmix_pointer_array_get_item.exit55 ], [ -16, %31 ], [ %52, %48 ], [ -16, %pmix_pointer_array_get_item.exit58 ], [ -16, %42 ]
  %.sink80 = phi i32 [ 1711, %27 ], [ 1711, %pmix_pointer_array_get_item.exit ], [ 1711, %20 ], [ 1717, %37 ], [ 1717, %pmix_pointer_array_get_item.exit55 ], [ 1717, %31 ], [ 1723, %48 ], [ 1723, %pmix_pointer_array_get_item.exit58 ], [ 1723, %42 ]
  %54 = call ptr @PMIx_Error_string(i32 noundef %.271.sink) #10
  call void (i32, ptr, ...) @pmix_output(i32 noundef 0, ptr noundef nonnull @.str.6, ptr noundef %54, ptr noundef nonnull @.str.7, i32 noundef %.sink80) #10
  br label %.loopexit

.loopexit:                                        ; preds = %27, %37, %48, %53, %.loopexit.sink.split, %15
  %.0 = phi i32 [ 0, %15 ], [ %.271.sink, %.loopexit.sink.split ], [ %30, %27 ], [ %41, %37 ], [ %52, %48 ], [ 0, %53 ]
  call void @llvm.lifetime.end.p0(i64 4, ptr nonnull %6) #10
  ret i32 %.0
}